; Function Attrs: mustprogress nofree norecurse nosync nounwind willreturn memory(read, inaccessiblemem: none) uwtable
define ptr @ff_vvc_get_ref_list(ptr noundef readonly captures(none) %0, ptr noundef readonly captures(none) %1, i32 noundef %2, i32 noundef %3) local_unnamed_addr #2 {
  %5 = getelementptr inbounds nuw i8, ptr %0, i64 1928
  %6 = load ptr, ptr %5, align 8, !tbaa !26
  %7 = getelementptr inbounds nuw i8, ptr %6, i64 30
  %8 = load i8, ptr %7, align 2, !tbaa !57
  %9 = zext i8 %8 to i32
  %10 = ashr i32 %2, %9
  %11 = ashr i32 %3, %9
  %12 = getelementptr inbounds nuw i8, ptr %0, i64 1936
  %13 = load ptr, ptr %12, align 8, !tbaa !60
  %14 = getelementptr inbounds nuw i8, ptr %13, i64 4038
  %15 = load i16, ptr %14, align 2, !tbaa !61
  %16 = zext i16 %15 to i32
  %17 = mul nsw i32 %11, %16
  %18 = add nsw i32 %17, %10
  %19 = getelementptr inbounds nuw i8, ptr %1, i64 32
  %20 = load ptr, ptr %19, align 8, !tbaa !64
  %21 = sext i32 %18 to i64
  %22 = getelementptr inbounds ptr, ptr %20, i64 %21
  %23 = load ptr, ptr %22, align 8, !tbaa !65
  ret ptr %23
}